; Function Attrs: nofree norecurse nosync nounwind memory(argmem: readwrite) uwtable
define internal void @iadst_iadst_4x4_add_c(ptr noundef captures(none) %0, i64 noundef %1, ptr noundef captures(none) %2, i32 %3) #2 {
  %5 = alloca [16 x i32], align 16
  %6 = alloca [4 x i32], align 16
  call void @llvm.lifetime.start.p0(i64 64, ptr nonnull %5) #12
  call void @llvm.lifetime.start.p0(i64 16, ptr nonnull %6) #12
  br label %7

7:                                                ; preds = %4, %7
  %indvars.iv = phi i64 [ 0, %4 ], [ %indvars.iv.next, %7 ]
  %8 = getelementptr inbounds nuw i32, ptr %2, i64 %indvars.iv
  %.idx = shl nuw nsw i64 %indvars.iv, 4
  %9 = getelementptr inbounds nuw i8, ptr %5, i64 %.idx
  %10 = load i32, ptr %8, align 4, !tbaa !151
  %11 = sext i32 %10 to i64
  %12 = mul nsw i64 %11, 5283
  %13 = getelementptr inbounds nuw i8, ptr %8, i64 32
  %14 = load i32, ptr %13, align 4, !tbaa !151
  %15 = sext i32 %14 to i64
  %16 = mul nsw i64 %15, 15212
  %17 = add nsw i64 %16, %12
  %18 = getelementptr inbounds nuw i8, ptr %8, i64 48
  %19 = load i32, ptr %18, align 4, !tbaa !151
  %20 = sext i32 %19 to i64
  %21 = mul nsw i64 %20, 9929
  %22 = add nsw i64 %17, %21
  %23 = mul nsw i64 %11, 9929
  %.neg.i = mul nsw i64 %15, -5283
  %24 = add nsw i64 %.neg.i, %23
  %.neg31.i = mul nsw i64 %20, -15212
  %25 = add nsw i64 %24, %.neg31.i
  %26 = sub nsw i64 %11, %15
  %27 = add nsw i64 %26, %20
  %28 = mul nsw i64 %27, 13377
  %29 = getelementptr inbounds nuw i8, ptr %8, i64 16
  %30 = load i32, ptr %29, align 4, !tbaa !151
  %31 = sext i32 %30 to i64
  %32 = mul nsw i64 %31, 13377
  %33 = add nsw i64 %32, 8192
  %34 = add nsw i64 %33, %22
  %35 = lshr i64 %34, 14
  %36 = trunc i64 %35 to i32
  store i32 %36, ptr %9, align 16, !tbaa !151
  %37 = add nsw i64 %33, %25
  %38 = lshr i64 %37, 14
  %39 = trunc i64 %38 to i32
  %40 = getelementptr inbounds nuw i8, ptr %9, i64 4
  store i32 %39, ptr %40, align 4, !tbaa !151
  %41 = add nsw i64 %28, 8192
  %42 = lshr i64 %41, 14
  %43 = trunc i64 %42 to i32
  %44 = getelementptr inbounds nuw i8, ptr %9, i64 8
  store i32 %43, ptr %44, align 8, !tbaa !151
  %45 = add nsw i64 %25, 8192
  %46 = add nsw i64 %45, %22
  %47 = sub nsw i64 %46, %32
  %48 = lshr i64 %47, 14
  %49 = trunc i64 %48 to i32
  %50 = getelementptr inbounds nuw i8, ptr %9, i64 12
  store i32 %49, ptr %50, align 4, !tbaa !151
  %indvars.iv.next = add nuw nsw i64 %indvars.iv, 1
  %exitcond.not = icmp eq i64 %indvars.iv.next, 4
  br i1 %exitcond.not, label %51, label %7, !llvm.loop !164

51:                                               ; preds = %7
  %52 = lshr i64 %1, 1
  tail call void @llvm.memset.p0.i64(ptr noundef nonnull align 4 dereferenceable(64) %2, i8 0, i64 64, i1 false)
  %53 = getelementptr inbounds nuw i8, ptr %6, i64 4
  %54 = getelementptr inbounds nuw i8, ptr %6, i64 8
  %55 = getelementptr inbounds nuw i8, ptr %6, i64 12
  br label %56

56:                                               ; preds = %51, %109
  %indvars.iv37 = phi i64 [ 0, %51 ], [ %indvars.iv.next38, %109 ]
  %.031 = phi ptr [ %0, %51 ], [ %110, %109 ]
  %57 = getelementptr inbounds nuw i32, ptr %5, i64 %indvars.iv37
  %58 = load i32, ptr %57, align 4, !tbaa !151
  %59 = sext i32 %58 to i64
  %60 = mul nsw i64 %59, 5283
  %61 = getelementptr inbounds nuw i8, ptr %57, i64 32
  %62 = load i32, ptr %61, align 4, !tbaa !151
  %63 = sext i32 %62 to i64
  %64 = mul nsw i64 %63, 15212
  %65 = add nsw i64 %64, %60
  %66 = getelementptr inbounds nuw i8, ptr %57, i64 48
  %67 = load i32, ptr %66, align 4, !tbaa !151
  %68 = sext i32 %67 to i64
  %69 = mul nsw i64 %68, 9929
  %70 = add nsw i64 %65, %69
  %71 = mul nsw i64 %59, 9929
  %.neg.i23 = mul nsw i64 %63, -5283
  %72 = add nsw i64 %.neg.i23, %71
  %.neg31.i24 = mul nsw i64 %68, -15212
  %73 = add nsw i64 %72, %.neg31.i24
  %74 = sub nsw i64 %59, %63
  %75 = add nsw i64 %74, %68
  %76 = mul nsw i64 %75, 13377
  %77 = getelementptr inbounds nuw i8, ptr %57, i64 16
  %78 = load i32, ptr %77, align 4, !tbaa !151
  %79 = sext i32 %78 to i64
  %80 = mul nsw i64 %79, 13377
  %81 = add nsw i64 %80, 8192
  %82 = add nsw i64 %81, %70
  %83 = lshr i64 %82, 14
  %84 = trunc i64 %83 to i32
  store i32 %84, ptr %6, align 16, !tbaa !151
  %85 = add nsw i64 %81, %73
  %86 = lshr i64 %85, 14
  %87 = trunc i64 %86 to i32
  store i32 %87, ptr %53, align 4, !tbaa !151
  %88 = add nsw i64 %76, 8192
  %89 = lshr i64 %88, 14
  %90 = trunc i64 %89 to i32
  store i32 %90, ptr %54, align 8, !tbaa !151
  %91 = add nsw i64 %73, 8192
  %92 = add nsw i64 %91, %70
  %93 = sub nsw i64 %92, %80
  %94 = lshr i64 %93, 14
  %95 = trunc i64 %94 to i32
  store i32 %95, ptr %55, align 4, !tbaa !151
  br label %96

96:                                               ; preds = %56, %96
  %indvars.iv33 = phi i64 [ 0, %56 ], [ %indvars.iv.next34, %96 ]
  %97 = mul nuw nsw i64 %52, %indvars.iv33
  %98 = getelementptr inbounds nuw i16, ptr %.031, i64 %97
  %99 = load i16, ptr %98, align 2, !tbaa !9
  %100 = zext i16 %99 to i32
  %101 = getelementptr inbounds nuw [4 x i32], ptr %6, i64 0, i64 %indvars.iv33
  %102 = load i32, ptr %101, align 4, !tbaa !151
  %103 = add i32 %102, 8
  %104 = ashr i32 %103, 4
  %105 = add nsw i32 %104, %100
  %106 = tail call i32 @llvm.smax.i32(i32 %105, i32 0)
  %107 = tail call i32 @llvm.umin.i32(i32 %106, i32 1023)
  %108 = trunc nuw nsw i32 %107 to i16
  store i16 %108, ptr %98, align 2, !tbaa !9
  %indvars.iv.next34 = add nuw nsw i64 %indvars.iv33, 1
  %exitcond36.not = icmp eq i64 %indvars.iv.next34, 4
  br i1 %exitcond36.not, label %109, label %96, !llvm.loop !165

109:                                              ; preds = %96
  %110 = getelementptr inbounds nuw i8, ptr %.031, i64 2
  %indvars.iv.next38 = add nuw nsw i64 %indvars.iv37, 1
  %exitcond40.not = icmp eq i64 %indvars.iv.next38, 4
  br i1 %exitcond40.not, label %111, label %56, !llvm.loop !166

111:                                              ; preds = %109
  call void @llvm.lifetime.end.p0(i64 16, ptr nonnull %6) #12
  call void @llvm.lifetime.end.p0(i64 64, ptr nonnull %5) #12
  ret void
}